target datalayout = "e-m:e-p270:32:32-p271:32:32-p272:64:64-i64:64-i128:128-f80:128-n8:16:32:64-S128"
target triple = "x86_64-pc-linux-gnu"

%struct.exported_pdu_info = type { i32, [16 x i8], i32, i32, [16 x i8], i32, ptr }
%struct.e_in6_addr = type { [16 x i8] }

@nettrace_parse_address.regex = internal global ptr null, align 8
@.str.22 = private unnamed_addr constant [175 x i8] c"^.*address\\s*=*\\s*\\[?(?P<ipaddress>(?:(?:\\d{1,3}\\.\\d{1,3}\\.\\d{1,3}\\.\\d{1,3})|(?:[0-9a-f:]*)))\\]?(?:.*port\\s*=*\\s*(?P<port>\\d{1,5}))?(?:.*transport\\s*=*\\s*(?P<transport>\\w+))?\00", align 1
@.str.23 = private unnamed_addr constant [10 x i8] c"ipaddress\00", align 1
@.str.24 = private unnamed_addr constant [5 x i8] c"port\00", align 1
@.str.25 = private unnamed_addr constant [10 x i8] c"transport\00", align 1
@.str.26 = private unnamed_addr constant [4 x i8] c"udp\00", align 1
@.str.27 = private unnamed_addr constant [4 x i8] c"tcp\00", align 1
@.str.28 = private unnamed_addr constant [5 x i8] c"sctp\00", align 1

; Function Attrs: nounwind uwtable
define internal ptr @nettrace_parse_address(ptr noundef %0, ptr noundef %1, i32 noundef %2, ptr noundef %3) #0 {
  %5 = alloca ptr, align 8
  %6 = alloca ptr, align 8
  %7 = alloca ptr, align 8
  %8 = alloca i32, align 4
  %9 = alloca ptr, align 8
  %10 = alloca i32, align 4
  %11 = alloca [5 x i8], align 1
  %12 = alloca [46 x i8], align 16
  %13 = alloca %struct.e_in6_addr, align 1
  %14 = alloca i32, align 4
  %15 = alloca ptr, align 8
  %16 = alloca ptr, align 8
  %17 = alloca ptr, align 8
  %18 = alloca ptr, align 8
  %19 = alloca ptr, align 8
  store ptr %0, ptr %6, align 8
  store ptr %1, ptr %7, align 8
  store i32 %2, ptr %8, align 4
  store ptr %3, ptr %9, align 8
  store i32 0, ptr %10, align 4
  store ptr null, ptr %17, align 8
  store ptr null, ptr %18, align 8
  store ptr null, ptr %19, align 8
  %20 = load ptr, ptr @nettrace_parse_address.regex, align 8
  %21 = icmp eq ptr %20, null
  br i1 %21, label %22, label %24

22:                                               ; preds = %4
  %23 = call ptr @g_regex_new(ptr noundef @.str.22, i32 noundef 262145, i32 noundef 0, ptr noundef null)
  store ptr %23, ptr @nettrace_parse_address.regex, align 8
  br label %24

24:                                               ; preds = %22, %4
  %25 = load ptr, ptr @nettrace_parse_address.regex, align 8
  %26 = load ptr, ptr %6, align 8
  %27 = call i32 @g_regex_match(ptr noundef %25, ptr noundef %26, i32 noundef 0, ptr noundef %16)
  %28 = load ptr, ptr %16, align 8
  %29 = call i32 @g_match_info_matches(ptr noundef %28)
  %30 = icmp ne i32 %29, 0
  br i1 %30, label %31, label %38

31:                                               ; preds = %24
  %32 = load ptr, ptr %16, align 8
  %33 = call ptr @g_match_info_fetch_named(ptr noundef %32, ptr noundef @.str.23)
  store ptr %33, ptr %17, align 8
  %34 = load ptr, ptr %16, align 8
  %35 = call ptr @g_match_info_fetch_named(ptr noundef %34, ptr noundef @.str.24)
  store ptr %35, ptr %18, align 8
  %36 = load ptr, ptr %16, align 8
  %37 = call ptr @g_match_info_fetch_named(ptr noundef %36, ptr noundef @.str.25)
  store ptr %37, ptr %19, align 8
  br label %40

38:                                               ; preds = %24
  %39 = load ptr, ptr %7, align 8
  store ptr %39, ptr %5, align 8
  br label %185

40:                                               ; preds = %31
  %41 = load ptr, ptr %16, align 8
  call void @g_match_info_free(ptr noundef %41)
  %42 = load ptr, ptr %17, align 8
  %43 = icmp ne ptr %42, null
  br i1 %43, label %44, label %55

44:                                               ; preds = %40
  %45 = load ptr, ptr %17, align 8
  %46 = call i64 @strlen(ptr noundef %45) #8
  %47 = icmp ne i64 %46, 0
  br i1 %47, label %48, label %55

48:                                               ; preds = %44
  %49 = getelementptr inbounds [46 x i8], ptr %12, i64 0, i64 0
  %50 = load ptr, ptr %17, align 8
  %51 = load ptr, ptr %17, align 8
  %52 = call i64 @strlen(ptr noundef %51) #8
  %53 = add i64 %52, 1
  %54 = call i64 @g_strlcpy(ptr noundef %49, ptr noundef %50, i64 noundef %53)
  br label %55

55:                                               ; preds = %48, %44, %40
  %56 = load ptr, ptr %18, align 8
  %57 = icmp ne ptr %56, null
  br i1 %57, label %58, label %66

58:                                               ; preds = %55
  %59 = load ptr, ptr %18, align 8
  %60 = call i64 @strlen(ptr noundef %59) #8
  %61 = icmp ne i64 %60, 0
  br i1 %61, label %62, label %66

62:                                               ; preds = %58
  %63 = load ptr, ptr %18, align 8
  %64 = call i64 @strtol(ptr noundef %63, ptr noundef %15, i32 noundef 10) #10
  %65 = trunc i64 %64 to i32
  store i32 %65, ptr %10, align 4
  br label %66

66:                                               ; preds = %62, %58, %55
  %67 = load ptr, ptr %19, align 8
  %68 = icmp ne ptr %67, null
  br i1 %68, label %69, label %80

69:                                               ; preds = %66
  %70 = load ptr, ptr %19, align 8
  %71 = call i64 @strlen(ptr noundef %70) #8
  %72 = icmp ne i64 %71, 0
  br i1 %72, label %73, label %80

73:                                               ; preds = %69
  %74 = getelementptr inbounds [5 x i8], ptr %11, i64 0, i64 0
  %75 = load ptr, ptr %19, align 8
  %76 = load ptr, ptr %19, align 8
  %77 = call i64 @strlen(ptr noundef %76) #8
  %78 = add i64 %77, 1
  %79 = call i64 @g_strlcpy(ptr noundef %74, ptr noundef %75, i64 noundef %78)
  br label %80

80:                                               ; preds = %73, %69, %66
  %81 = getelementptr inbounds [46 x i8], ptr %12, i64 0, i64 0
  %82 = call zeroext i1 @ws_inet_pton6(ptr noundef %81, ptr noundef %13)
  br i1 %82, label %83, label %107

83:                                               ; preds = %80
  %84 = load i32, ptr %8, align 4
  %85 = icmp ne i32 %84, 0
  br i1 %85, label %86, label %96

86:                                               ; preds = %83
  %87 = load ptr, ptr %9, align 8
  %88 = getelementptr inbounds %struct.exported_pdu_info, ptr %87, i32 0, i32 0
  %89 = load i32, ptr %88, align 8
  %90 = or i32 %89, 128
  store i32 %90, ptr %88, align 8
  %91 = load ptr, ptr %9, align 8
  %92 = getelementptr inbounds %struct.exported_pdu_info, ptr %91, i32 0, i32 1
  %93 = getelementptr inbounds [16 x i8], ptr %92, i64 0, i64 0
  %94 = getelementptr inbounds %struct.e_in6_addr, ptr %13, i32 0, i32 0
  %95 = getelementptr inbounds [16 x i8], ptr %94, i64 0, i64 0
  call void @llvm.memcpy.p0.p0.i64(ptr align 4 %93, ptr align 1 %95, i64 16, i1 false)
  br label %106

96:                                               ; preds = %83
  %97 = load ptr, ptr %9, align 8
  %98 = getelementptr inbounds %struct.exported_pdu_info, ptr %97, i32 0, i32 0
  %99 = load i32, ptr %98, align 8
  %100 = or i32 %99, 256
  store i32 %100, ptr %98, align 8
  %101 = load ptr, ptr %9, align 8
  %102 = getelementptr inbounds %struct.exported_pdu_info, ptr %101, i32 0, i32 4
  %103 = getelementptr inbounds [16 x i8], ptr %102, i64 0, i64 0
  %104 = getelementptr inbounds %struct.e_in6_addr, ptr %13, i32 0, i32 0
  %105 = getelementptr inbounds [16 x i8], ptr %104, i64 0, i64 0
  call void @llvm.memcpy.p0.p0.i64(ptr align 4 %103, ptr align 1 %105, i64 16, i1 false)
  br label %106

106:                                              ; preds = %96, %86
  br label %131

107:                                              ; preds = %80
  %108 = getelementptr inbounds [46 x i8], ptr %12, i64 0, i64 0
  %109 = call zeroext i1 @ws_inet_pton4(ptr noundef %108, ptr noundef %14)
  br i1 %109, label %110, label %130

110:                                              ; preds = %107
  %111 = load i32, ptr %8, align 4
  %112 = icmp ne i32 %111, 0
  br i1 %112, label %113, label %121

113:                                              ; preds = %110
  %114 = load ptr, ptr %9, align 8
  %115 = getelementptr inbounds %struct.exported_pdu_info, ptr %114, i32 0, i32 0
  %116 = load i32, ptr %115, align 8
  %117 = or i32 %116, 1
  store i32 %117, ptr %115, align 8
  %118 = load ptr, ptr %9, align 8
  %119 = getelementptr inbounds %struct.exported_pdu_info, ptr %118, i32 0, i32 1
  %120 = getelementptr inbounds [16 x i8], ptr %119, i64 0, i64 0
  call void @llvm.memcpy.p0.p0.i64(ptr align 4 %120, ptr align 4 %14, i64 4, i1 false)
  br label %129

121:                                              ; preds = %110
  %122 = load ptr, ptr %9, align 8
  %123 = getelementptr inbounds %struct.exported_pdu_info, ptr %122, i32 0, i32 0
  %124 = load i32, ptr %123, align 8
  %125 = or i32 %124, 2
  store i32 %125, ptr %123, align 8
  %126 = load ptr, ptr %9, align 8
  %127 = getelementptr inbounds %struct.exported_pdu_info, ptr %126, i32 0, i32 4
  %128 = getelementptr inbounds [16 x i8], ptr %127, i64 0, i64 0
  call void @llvm.memcpy.p0.p0.i64(ptr align 4 %128, ptr align 4 %14, i64 4, i1 false)
  br label %129

129:                                              ; preds = %121, %113
  br label %130

130:                                              ; preds = %129, %107
  br label %131

131:                                              ; preds = %130, %106
  %132 = load i32, ptr %10, align 4
  %133 = icmp ugt i32 %132, 0
  br i1 %133, label %134, label %183

134:                                              ; preds = %131
  %135 = load ptr, ptr %9, align 8
  %136 = getelementptr inbounds %struct.exported_pdu_info, ptr %135, i32 0, i32 2
  %137 = load i32, ptr %136, align 4
  %138 = icmp eq i32 %137, 0
  br i1 %138, label %139, label %163

139:                                              ; preds = %134
  %140 = getelementptr inbounds [5 x i8], ptr %11, i64 0, i64 0
  %141 = call i32 @g_ascii_strncasecmp(ptr noundef %140, ptr noundef @.str.26, i64 noundef 3)
  %142 = icmp eq i32 %141, 0
  br i1 %142, label %143, label %146

143:                                              ; preds = %139
  %144 = load ptr, ptr %9, align 8
  %145 = getelementptr inbounds %struct.exported_pdu_info, ptr %144, i32 0, i32 2
  store i32 3, ptr %145, align 4
  br label %162

146:                                              ; preds = %139
  %147 = getelementptr inbounds [5 x i8], ptr %11, i64 0, i64 0
  %148 = call i32 @g_ascii_strncasecmp(ptr noundef %147, ptr noundef @.str.27, i64 noundef 3)
  %149 = icmp eq i32 %148, 0
  br i1 %149, label %150, label %153

150:                                              ; preds = %146
  %151 = load ptr, ptr %9, align 8
  %152 = getelementptr inbounds %struct.exported_pdu_info, ptr %151, i32 0, i32 2
  store i32 2, ptr %152, align 4
  br label %161

153:                                              ; preds = %146
  %154 = getelementptr inbounds [5 x i8], ptr %11, i64 0, i64 0
  %155 = call i32 @g_ascii_strncasecmp(ptr noundef %154, ptr noundef @.str.28, i64 noundef 4)
  %156 = icmp eq i32 %155, 0
  br i1 %156, label %157, label %160

157:                                              ; preds = %153
  %158 = load ptr, ptr %9, align 8
  %159 = getelementptr inbounds %struct.exported_pdu_info, ptr %158, i32 0, i32 2
  store i32 1, ptr %159, align 4
  br label %160

160:                                              ; preds = %157, %153
  br label %161

161:                                              ; preds = %160, %150
  br label %162

162:                                              ; preds = %161, %143
  br label %163

163:                                              ; preds = %162, %134
  %164 = load i32, ptr %8, align 4
  %165 = icmp ne i32 %164, 0
  br i1 %165, label %166, label %174

166:                                              ; preds = %163
  %167 = load ptr, ptr %9, align 8
  %168 = getelementptr inbounds %struct.exported_pdu_info, ptr %167, i32 0, i32 0
  %169 = load i32, ptr %168, align 8
  %170 = or i32 %169, 4
  store i32 %170, ptr %168, align 8
  %171 = load i32, ptr %10, align 4
  %172 = load ptr, ptr %9, align 8
  %173 = getelementptr inbounds %struct.exported_pdu_info, ptr %172, i32 0, i32 3
  store i32 %171, ptr %173, align 8
  br label %182

174:                                              ; preds = %163
  %175 = load ptr, ptr %9, align 8
  %176 = getelementptr inbounds %struct.exported_pdu_info, ptr %175, i32 0, i32 0
  %177 = load i32, ptr %176, align 8
  %178 = or i32 %177, 8
  store i32 %178, ptr %176, align 8
  %179 = load i32, ptr %10, align 4
  %180 = load ptr, ptr %9, align 8
  %181 = getelementptr inbounds %struct.exported_pdu_info, ptr %180, i32 0, i32 5
  store i32 %179, ptr %181, align 4
  br label %182

182:                                              ; preds = %174, %166
  br label %183

183:                                              ; preds = %182, %131
  %184 = load ptr, ptr %7, align 8
  store ptr %184, ptr %5, align 8
  br label %185

185:                                              ; preds = %183, %38
  %186 = load ptr, ptr %5, align 8
  ret ptr %186
}