; Function Attrs: nounwind uwtable
define internal fastcc void @nettrace_parse_address(ptr noundef nonnull %0, i32 noundef range(i32 0, 2) %1, ptr noundef nonnull captures(none) %2) unnamed_addr #0 {
  %4 = alloca [5 x i8], align 1
  %5 = alloca [46 x i8], align 16
  %6 = alloca %struct.e_in6_addr, align 1
  %7 = alloca i32, align 4
  %8 = alloca ptr, align 8
  %9 = alloca ptr, align 8
  %10 = load ptr, ptr @nettrace_parse_address.regex, align 8
  %11 = icmp eq ptr %10, null
  br i1 %11, label %12, label %14

12:                                               ; preds = %3
  %13 = tail call ptr @g_regex_new(ptr noundef nonnull @.str.22, i32 noundef 262145, i32 noundef 0, ptr noundef null) #11
  store ptr %13, ptr @nettrace_parse_address.regex, align 8
  br label %14

14:                                               ; preds = %12, %3
  %15 = phi ptr [ %13, %12 ], [ %10, %3 ]
  %16 = call i32 @g_regex_match(ptr noundef %15, ptr noundef nonnull %0, i32 noundef 0, ptr noundef nonnull %9) #11
  %17 = load ptr, ptr %9, align 8
  %18 = call i32 @g_match_info_matches(ptr noundef %17) #11
  %.not = icmp eq i32 %18, 0
  br i1 %.not, label %87, label %19

19:                                               ; preds = %14
  %20 = load ptr, ptr %9, align 8
  %21 = call ptr @g_match_info_fetch_named(ptr noundef %20, ptr noundef nonnull @.str.23) #11
  %22 = load ptr, ptr %9, align 8
  %23 = call ptr @g_match_info_fetch_named(ptr noundef %22, ptr noundef nonnull @.str.24) #11
  %24 = load ptr, ptr %9, align 8
  %25 = call ptr @g_match_info_fetch_named(ptr noundef %24, ptr noundef nonnull @.str.25) #11
  %26 = load ptr, ptr %9, align 8
  call void @g_match_info_free(ptr noundef %26) #11
  %.not42 = icmp eq ptr %21, null
  br i1 %.not42, label %32, label %27

27:                                               ; preds = %19
  %28 = call i64 @strlen(ptr noundef nonnull dereferenceable(1) %21) #13
  %.not43 = icmp eq i64 %28, 0
  br i1 %.not43, label %32, label %29

29:                                               ; preds = %27
  %30 = add i64 %28, 1
  %31 = call i64 @g_strlcpy(ptr noundef nonnull %5, ptr noundef nonnull %21, i64 noundef %30) #11
  br label %32

32:                                               ; preds = %29, %27, %19
  %.not44 = icmp eq ptr %23, null
  br i1 %.not44, label %37, label %33

33:                                               ; preds = %32
  %char0 = load i8, ptr %23, align 1
  %.not45 = icmp eq i8 %char0, 0
  br i1 %.not45, label %37, label %34

34:                                               ; preds = %33
  %35 = call i64 @strtol(ptr noundef nonnull %23, ptr noundef nonnull %8, i32 noundef 10) #11
  %36 = trunc i64 %35 to i32
  br label %37

37:                                               ; preds = %34, %33, %32
  %.0 = phi i32 [ %36, %34 ], [ 0, %33 ], [ 0, %32 ]
  %.not46 = icmp eq ptr %25, null
  br i1 %.not46, label %43, label %38

38:                                               ; preds = %37
  %39 = call i64 @strlen(ptr noundef nonnull dereferenceable(1) %25) #13
  %.not47 = icmp eq i64 %39, 0
  br i1 %.not47, label %43, label %40

40:                                               ; preds = %38
  %41 = add i64 %39, 1
  %42 = call i64 @g_strlcpy(ptr noundef nonnull %4, ptr noundef nonnull %25, i64 noundef %41) #11
  br label %43

43:                                               ; preds = %40, %38, %37
  %44 = call zeroext i1 @ws_inet_pton6(ptr noundef nonnull %5, ptr noundef nonnull %6) #11
  br i1 %44, label %45, label %53

45:                                               ; preds = %43
  %.not49 = icmp eq i32 %1, 0
  %46 = load i32, ptr %2, align 8
  br i1 %.not49, label %50, label %47

47:                                               ; preds = %45
  %48 = or i32 %46, 128
  store i32 %48, ptr %2, align 8
  %49 = getelementptr inbounds nuw i8, ptr %2, i64 4
  call void @llvm.memcpy.p0.p0.i64(ptr noundef nonnull align 4 dereferenceable(16) %49, ptr noundef nonnull align 1 dereferenceable(16) %6, i64 16, i1 false)
  br label %65

50:                                               ; preds = %45
  %51 = or i32 %46, 256
  store i32 %51, ptr %2, align 8
  %52 = getelementptr inbounds nuw i8, ptr %2, i64 28
  call void @llvm.memcpy.p0.p0.i64(ptr noundef nonnull align 4 dereferenceable(16) %52, ptr noundef nonnull align 1 dereferenceable(16) %6, i64 16, i1 false)
  br label %65

53:                                               ; preds = %43
  %54 = call zeroext i1 @ws_inet_pton4(ptr noundef nonnull %5, ptr noundef nonnull %7) #11
  br i1 %54, label %55, label %65

55:                                               ; preds = %53
  %.not48 = icmp eq i32 %1, 0
  %56 = load i32, ptr %2, align 8
  br i1 %.not48, label %61, label %57

57:                                               ; preds = %55
  %58 = or i32 %56, 1
  store i32 %58, ptr %2, align 8
  %59 = getelementptr inbounds nuw i8, ptr %2, i64 4
  %60 = load i32, ptr %7, align 4
  store i32 %60, ptr %59, align 4
  br label %65

61:                                               ; preds = %55
  %62 = or i32 %56, 2
  store i32 %62, ptr %2, align 8
  %63 = getelementptr inbounds nuw i8, ptr %2, i64 28
  %64 = load i32, ptr %7, align 4
  store i32 %64, ptr %63, align 4
  br label %65

65:                                               ; preds = %53, %61, %57, %47, %50
  %.not50 = icmp eq i32 %.0, 0
  br i1 %.not50, label %87, label %66

66:                                               ; preds = %65
  %67 = getelementptr inbounds nuw i8, ptr %2, i64 20
  %68 = load i32, ptr %67, align 4
  %69 = icmp eq i32 %68, 0
  br i1 %69, label %70, label %79

70:                                               ; preds = %66
  %71 = call i32 @g_ascii_strncasecmp(ptr noundef nonnull %4, ptr noundef nonnull @.str.26, i64 noundef 3) #11
  %72 = icmp eq i32 %71, 0
  br i1 %72, label %.sink.split, label %73

73:                                               ; preds = %70
  %74 = call i32 @g_ascii_strncasecmp(ptr noundef nonnull %4, ptr noundef nonnull @.str.27, i64 noundef 3) #11
  %75 = icmp eq i32 %74, 0
  br i1 %75, label %.sink.split, label %76

76:                                               ; preds = %73
  %77 = call i32 @g_ascii_strncasecmp(ptr noundef nonnull %4, ptr noundef nonnull @.str.28, i64 noundef 4) #11
  %78 = icmp eq i32 %77, 0
  br i1 %78, label %.sink.split, label %79

.sink.split:                                      ; preds = %76, %73, %70
  %.sink = phi i32 [ 3, %70 ], [ 2, %73 ], [ 1, %76 ]
  store i32 %.sink, ptr %67, align 4
  br label %79

79:                                               ; preds = %.sink.split, %76, %66
  %.not51 = icmp eq i32 %1, 0
  %80 = load i32, ptr %2, align 8
  br i1 %.not51, label %84, label %81

81:                                               ; preds = %79
  %82 = or i32 %80, 4
  store i32 %82, ptr %2, align 8
  %83 = getelementptr inbounds nuw i8, ptr %2, i64 24
  store i32 %.0, ptr %83, align 8
  br label %87

84:                                               ; preds = %79
  %85 = or i32 %80, 8
  store i32 %85, ptr %2, align 8
  %86 = getelementptr inbounds nuw i8, ptr %2, i64 44
  store i32 %.0, ptr %86, align 4
  br label %87

87:                                               ; preds = %65, %84, %81, %14
  ret void
}